; Function Attrs: nounwind uwtable
define internal i32 @ps_parser_to_fixed_array(ptr noundef captures(none) %0, i32 noundef %1, ptr noundef %2, i32 noundef %3) #0 {
  %5 = getelementptr inbounds nuw i8, ptr %0, i64 16
  %6 = load ptr, ptr %5, align 8
  %7 = load ptr, ptr %0, align 8
  %8 = icmp ult ptr %7, %6
  br i1 %8, label %.lr.ph.i.i, label %ps_parser_skip_spaces.exit

.lr.ph.i.i:                                       ; preds = %4
  %9 = ptrtoint ptr %6 to i64
  br label %10

10:                                               ; preds = %skip_comment.exit.i.i, %.lr.ph.i.i
  %storemerge8.i.i = phi ptr [ %7, %.lr.ph.i.i ], [ %17, %skip_comment.exit.i.i ]
  %11 = load i8, ptr %storemerge8.i.i, align 1
  switch i8 %11, label %ps_parser_skip_spaces.exit [
    i8 32, label %skip_comment.exit.i.i
    i8 13, label %skip_comment.exit.i.i
    i8 10, label %skip_comment.exit.i.i
    i8 9, label %skip_comment.exit.i.i
    i8 12, label %skip_comment.exit.i.i
    i8 0, label %skip_comment.exit.i.i
    i8 37, label %.lr.ph.preheader.i.i.i
  ]

.lr.ph.preheader.i.i.i:                           ; preds = %10
  %12 = ptrtoint ptr %storemerge8.i.i to i64
  %13 = sub i64 %9, %12
  %scevgep.i.i.i = getelementptr i8, ptr %storemerge8.i.i, i64 %13
  br label %.lr.ph.i.i.i

.lr.ph.ithread-pre-split.i.i:                     ; preds = %15
  %.pr.i.i = load i8, ptr %16, align 1
  br label %.lr.ph.i.i.i

.lr.ph.i.i.i:                                     ; preds = %.lr.ph.ithread-pre-split.i.i, %.lr.ph.preheader.i.i.i
  %14 = phi i8 [ %.pr.i.i, %.lr.ph.ithread-pre-split.i.i ], [ 37, %.lr.ph.preheader.i.i.i ]
  %.09.i.i.i = phi ptr [ %16, %.lr.ph.ithread-pre-split.i.i ], [ %storemerge8.i.i, %.lr.ph.preheader.i.i.i ]
  switch i8 %14, label %15 [
    i8 13, label %skip_comment.exit.i.i
    i8 10, label %skip_comment.exit.i.i
  ]

15:                                               ; preds = %.lr.ph.i.i.i
  %16 = getelementptr inbounds nuw i8, ptr %.09.i.i.i, i64 1
  %exitcond.not.i.i.i = icmp eq ptr %16, %6
  br i1 %exitcond.not.i.i.i, label %skip_comment.exit.i.i, label %.lr.ph.ithread-pre-split.i.i, !llvm.loop !7

skip_comment.exit.i.i:                            ; preds = %15, %.lr.ph.i.i.i, %.lr.ph.i.i.i, %10, %10, %10, %10, %10, %10
  %.0.i.i = phi ptr [ %storemerge8.i.i, %10 ], [ %storemerge8.i.i, %10 ], [ %storemerge8.i.i, %10 ], [ %storemerge8.i.i, %10 ], [ %storemerge8.i.i, %10 ], [ %storemerge8.i.i, %10 ], [ %scevgep.i.i.i, %15 ], [ %.09.i.i.i, %.lr.ph.i.i.i ], [ %.09.i.i.i, %.lr.ph.i.i.i ]
  %17 = getelementptr inbounds nuw i8, ptr %.0.i.i, i64 1
  %18 = icmp ult ptr %17, %6
  br i1 %18, label %10, label %ps_parser_skip_spaces.exit, !llvm.loop !8

ps_parser_skip_spaces.exit:                       ; preds = %10, %skip_comment.exit.i.i, %4
  %storemerge.lcssa.i.i = phi ptr [ %7, %4 ], [ %storemerge8.i.i, %10 ], [ %17, %skip_comment.exit.i.i ]
  store ptr %storemerge.lcssa.i.i, ptr %0, align 8
  %19 = tail call fastcc i32 @ps_tofixedarray(ptr noundef nonnull %0, ptr noundef %6, i32 noundef %1, ptr noundef %2, i32 noundef %3)
  ret i32 %19
}